; Function Attrs: mustprogress nounwind uwtable
define dso_local noundef zeroext i1 @_ZN4llvm25OptimizationRemarkEmitter10invalidateERNS_8FunctionERKNS_17PreservedAnalysesERNS_15AnalysisManagerIS1_JEE11InvalidatorE(ptr nocapture noundef nonnull align 8 dereferenceable(24) %0, ptr noundef nonnull align 8 dereferenceable(136) %1, ptr noundef nonnull align 8 dereferenceable(96) %2, ptr noundef nonnull align 8 dereferenceable(16) %3) local_unnamed_addr #0 align 2 {
  %5 = getelementptr inbounds nuw i8, ptr %0, i64 16
  %6 = load ptr, ptr %5, align 8
  %.not5 = icmp eq ptr %6, null
  br i1 %.not5, label %8, label %.thread

.thread:                                          ; preds = %4
  store ptr null, ptr %5, align 8
  tail call void @_ZN4llvm18BlockFrequencyInfoD1Ev(ptr noundef nonnull align 8 dereferenceable(8) %6) #12
  tail call void @_ZdlPvm(ptr noundef nonnull %6, i64 noundef 8) #14
  %7 = getelementptr inbounds nuw i8, ptr %0, i64 8
  store ptr null, ptr %7, align 8
  br label %12

8:                                                ; preds = %4
  %.phi.trans.insert = getelementptr inbounds nuw i8, ptr %0, i64 8
  %.pre = load ptr, ptr %.phi.trans.insert, align 8
  %9 = icmp eq ptr %.pre, null
  br i1 %9, label %12, label %10

10:                                               ; preds = %8
  %11 = tail call noundef zeroext i1 @_ZN4llvm15AnalysisManagerINS_8FunctionEJEE11Invalidator14invalidateImplINS_6detail19AnalysisResultModelIS1_NS_22BlockFrequencyAnalysisENS_18BlockFrequencyInfoES3_Lb1EEEEEbPNS_11AnalysisKeyERS1_RKNS_17PreservedAnalysesE(ptr noundef nonnull align 8 dereferenceable(16) %3, ptr noundef nonnull @_ZN4llvm22BlockFrequencyAnalysis3KeyE, ptr noundef nonnull align 8 dereferenceable(136) %1, ptr noundef nonnull align 8 dereferenceable(96) %2)
  br i1 %11, label %13, label %12

12:                                               ; preds = %.thread, %10, %8
  br label %13

13:                                               ; preds = %10, %12
  %.0 = phi i1 [ false, %12 ], [ true, %10 ]
  ret i1 %.0
}